Certificate:
    Data:
        Version: 3 (0x2)
        Serial Number: 13135752980835099587 (0xb64b91bd67f463c3)
    Signature Algorithm: sha256WithRSAEncryption
        Issuer: CN=Monaca
        Validity
            Not Before: Sep 22 12:49:44 2016 GMT
            Not After : Sep 22 12:49:44 2019 GMT
        Subject: CN=monaca-debug-app
        Subject Public Key Info:
            Public Key Algorithm: rsaEncryption
                Public-Key: (2048 bit)
                Modulus:
                    00:c8:b4:a9:90:7f:aa:0e:00:76:b2:d7:d0:03:64:
                    b4:4c:2c:f3:19:1d:c0:d4:fe:45:77:0b:31:15:61:
                    55:f5:a9:8c:65:4a:ef:00:79:5e:4c:50:1a:68:ad:
                    f0:0c:21:9f:1f:58:1a:ef:67:70:b2:9e:70:16:78:
                    d6:55:90:54:d7:0f:4a:33:80:d8:1f:0a:53:b9:84:
                    f2:ac:84:6e:8c:6e:da:48:01:9b:eb:37:90:87:30:
                    44:8c:54:4d:4e:e3:c8:5f:4d:47:a2:4f:4c:d7:b6:
                    1f:1b:5d:d4:3d:8f:aa:b1:51:39:0d:98:64:61:d2:
                    2a:f4:4f:20:93:9c:30:66:67:1e:35:85:cd:84:e5:
                    36:29:ee:63:ce:f2:16:44:f5:60:c1:81:ec:dd:9f:
                    da:7f:1b:e1:1a:88:d6:56:0e:64:23:38:ad:ab:a9:
                    a4:77:2c:7c:e1:ac:98:30:be:67:15:97:9b:40:f1:
                    5e:be:4d:88:fe:f0:17:1e:f5:97:00:ac:41:12:11:
                    af:33:85:ee:35:32:80:95:2b:b4:8b:eb:9e:5f:0e:
                    ed:16:27:4f:24:79:5e:ec:b8:e7:b3:51:a5:a6:1e:
                    2d:35:b5:81:c2:42:ba:a7:4d:85:97:cc:d1:8e:1f:
                    b5:27:70:55:91:92:4a:ae:d7:18:66:3c:8a:61:d1:
                    87:4d
                Exponent: 65537 (0x10001)
        X509v3 extensions:
            X509v3 Basic Constraints: 
                CA:FALSE
            Netscape Comment: 
                OpenSSL Generated Certificate
            X509v3 Subject Key Identifier: 
                B6:8B:E0:B5:23:37:1C:1A:84:CF:76:6D:25:55:4E:44:0E:39:F1:4E
            X509v3 Authority Key Identifier: 
                keyid:E1:C2:82:2D:04:9F:BC:50:9C:53:B3:61:5B:6D:6F:70:F6:CA:4F:01

            X509v3 Extended Key Usage: 
                Code Signing
    Signature Algorithm: sha256WithRSAEncryption
         8e:b7:fd:1f:e1:67:81:c1:d5:6e:42:24:ef:2f:47:ab:8e:81:
         68:d2:42:c2:8b:10:75:85:2a:88:f7:b9:94:f0:fa:b9:66:58:
         0e:97:7f:5c:d0:1f:44:84:1f:36:da:ef:c0:6a:1d:45:db:61:
         46:dc:71:b1:f1:12:4a:d7:7c:ef:99:41:8c:cb:c2:9a:b5:6d:
         55:2b:8d:2e:1c:e8:29:0d:0f:92:7c:3d:e2:0c:0c:6f:69:f3:
         80:ce:20:a1:09:e9:82:e6:7f:9b:ce:0f:60:20:55:e1:c7:a3:
         d9:7e:c4:37:54:b3:76:41:d9:57:45:f2:0f:71:c9:36:40:a6:
         64:a9:1b:bc:3e:f9:80:49:54:bb:e6:b1:99:cd:9f:23:39:22:
         46:d7:45:ab:fc:14:f2:78:73:cd:48:ec:21:a4:63:3f:10:64:
         77:ba:a3:dd:da:80:cc:12:fc:cf:53:22:92:77:de:ec:61:c1:
         cf:05:45:d3:96:26:4a:4e:3b:be:10:e7:80:1c:d2:75:eb:42:
         75:9c:ea:64:5d:f4:71:34:b7:d6:a8:80:84:29:c8:65:22:d7:
         d2:82:6e:28:3c:05:25:6f:9a:04:34:0d:17:d6:21:c0:28:36:
         b9:72:1c:55:ee:d8:90:b4:0a:88:20:73:dd:1f:16:6b:f8:3e:
         25:b2:93:58
-----BEGIN CERTIFICATE-----
MIIDQTCCAimgAwIBAgIJALZLkb1n9GPDMA0GCSqGSIb3DQEBCwUAMBExDzANBgNV
BAMTBk1vbmFjYTAeFw0xNjA5MjIxMjQ5NDRaFw0xOTA5MjIxMjQ5NDRaMBsxGTAX
BgNVBAMTEG1vbmFjYS1kZWJ1Zy1hcHAwggEiMA0GCSqGSIb3DQEBAQUAA4IBDwAw
ggEKAoIBAQDItKmQf6oOAHay19ADZLRMLPMZHcDU/kV3CzEVYVX1qYxlSu8AeV5M
UBporfAMIZ8fWBrvZ3CynnAWeNZVkFTXD0ozgNgfClO5hPKshG6MbtpIAZvrN5CH
MESMVE1O48hfTUeiT0zXth8bXdQ9j6qxUTkNmGRh0ir0TyCTnDBmZx41hc2E5TYp
7mPO8hZE9WDBgezdn9p/G+EaiNZWDmQjOK2rqaR3LHzhrJgwvmcVl5tA8V6+TYj+
8Bce9ZcArEESEa8zhe41MoCVK7SL655fDu0WJ08keV7suOezUaWmHi01tYHCQrqn
TYWXzNGOH7UncFWRkkqu1xhmPIph0YdNAgMBAAGjgZEwgY4wCQYDVR0TBAIwADAs
BglghkgBhvhCAQ0EHxYdT3BlblNTTCBHZW5lcmF0ZWQgQ2VydGlmaWNhdGUwHQYD
VR0OBBYEFLaL4LUjNxwahM92bSVVTkQOOfFOMB8GA1UdIwQYMBaAFOHCgi0En7xQ
nFOzYVttb3D2yk8BMBMGA1UdJQQMMAoGCCsGAQUFBwMDMA0GCSqGSIb3DQEBCwUA
A4IBAQCOt/0f4WeBwdVuQiTvL0erjoFo0kLCixB1hSqI97mU8Pq5ZlgOl39c0B9E
hB822u/Aah1F22FG3HGx8RJK13zvmUGMy8KatW1VK40uHOgpDQ+SfD3iDAxvafOA
ziChCemC5n+bzg9gIFXhx6PZfsQ3VLN2QdlXRfIPcck2QKZkqRu8PvmASVS75rGZ
zZ8jOSJG10Wr/BTyeHPNSOwhpGM/EGR3uqPd2oDMEvzPUyKSd97sYcHPBUXTliZK
Tju+EOeAHNJ160J1nOpkXfRxNLfWqICEKchlItfSgm4oPAUlb5oENA0X1iHAKDa5
chxV7tiQtAqIIHPdHxZr+D4lspNY
-----END CERTIFICATE-----
